; Function Attrs: nounwind uwtable
define dso_local range(i32 -2, 1) i32 @cm_zlib_deflateReset(ptr noundef %0) local_unnamed_addr #0 {
  %2 = tail call i32 @cm_zlib_deflateResetKeep(ptr noundef %0)
  %3 = icmp eq i32 %2, 0
  br i1 %3, label %4, label %47

4:                                                ; preds = %1
  %5 = getelementptr inbounds nuw i8, ptr %0, i64 56
  %6 = load ptr, ptr %5, align 8, !tbaa !17
  %7 = getelementptr inbounds nuw i8, ptr %6, i64 80
  %8 = load i32, ptr %7, align 8, !tbaa !31
  %9 = zext i32 %8 to i64
  %10 = shl nuw nsw i64 %9, 1
  %11 = getelementptr inbounds nuw i8, ptr %6, i64 104
  store i64 %10, ptr %11, align 8, !tbaa !50
  %12 = getelementptr inbounds nuw i8, ptr %6, i64 120
  %13 = load ptr, ptr %12, align 8, !tbaa !39
  %14 = getelementptr inbounds nuw i8, ptr %6, i64 132
  %15 = load i32, ptr %14, align 4, !tbaa !34
  %16 = add i32 %15, -1
  %17 = zext i32 %16 to i64
  %18 = getelementptr inbounds nuw i16, ptr %13, i64 %17
  store i16 0, ptr %18, align 2, !tbaa !51
  %19 = shl nuw nsw i64 %17, 1
  tail call void @llvm.memset.p0.i64(ptr align 1 %13, i8 0, i64 %19, i1 false)
  %20 = getelementptr inbounds nuw i8, ptr %6, i64 196
  %21 = load i32, ptr %20, align 4, !tbaa !47
  %22 = sext i32 %21 to i64
  %23 = getelementptr inbounds [10 x %struct.config_s], ptr @configuration_table, i64 0, i64 %22, i32 1
  %24 = load i16, ptr %23, align 2, !tbaa !52
  %25 = zext i16 %24 to i32
  %26 = getelementptr inbounds nuw i8, ptr %6, i64 192
  store i32 %25, ptr %26, align 8, !tbaa !54
  %27 = getelementptr inbounds [10 x %struct.config_s], ptr @configuration_table, i64 0, i64 %22
  %28 = load i16, ptr %27, align 16, !tbaa !55
  %29 = zext i16 %28 to i32
  %30 = getelementptr inbounds nuw i8, ptr %6, i64 204
  store i32 %29, ptr %30, align 4, !tbaa !56
  %31 = getelementptr inbounds [10 x %struct.config_s], ptr @configuration_table, i64 0, i64 %22, i32 2
  %32 = load i16, ptr %31, align 4, !tbaa !57
  %33 = zext i16 %32 to i32
  %34 = getelementptr inbounds nuw i8, ptr %6, i64 208
  store i32 %33, ptr %34, align 8, !tbaa !58
  %35 = getelementptr inbounds [10 x %struct.config_s], ptr @configuration_table, i64 0, i64 %22, i32 3
  %36 = load i16, ptr %35, align 2, !tbaa !59
  %37 = zext i16 %36 to i32
  %38 = getelementptr inbounds nuw i8, ptr %6, i64 188
  store i32 %37, ptr %38, align 4, !tbaa !60
  %39 = getelementptr inbounds nuw i8, ptr %6, i64 172
  store i32 0, ptr %39, align 4, !tbaa !61
  %40 = getelementptr inbounds nuw i8, ptr %6, i64 152
  store i64 0, ptr %40, align 8, !tbaa !62
  %41 = getelementptr inbounds nuw i8, ptr %6, i64 180
  store i32 0, ptr %41, align 4, !tbaa !63
  %42 = getelementptr inbounds nuw i8, ptr %6, i64 5932
  store i32 0, ptr %42, align 4, !tbaa !64
  %43 = getelementptr inbounds nuw i8, ptr %6, i64 184
  store i32 2, ptr %43, align 8, !tbaa !65
  %44 = getelementptr inbounds nuw i8, ptr %6, i64 160
  store i32 2, ptr %44, align 8, !tbaa !66
  %45 = getelementptr inbounds nuw i8, ptr %6, i64 168
  store i32 0, ptr %45, align 8, !tbaa !67
  %46 = getelementptr inbounds nuw i8, ptr %6, i64 128
  store i32 0, ptr %46, align 8, !tbaa !68
  br label %47

47:                                               ; preds = %4, %1
  ret i32 %2
}